; Function Attrs: nofree norecurse nosync nounwind memory(none) uwtable
define range(i32 -2147483648, 2147483647) i32 @oneBitPosition(i32 noundef %0, i32 noundef %1) local_unnamed_addr #2 {
  %3 = icmp sgt i32 %1, 0
  br i1 %3, label %.lr.ph, label %._crit_edge

.lr.ph:                                           ; preds = %2, %6
  %.08 = phi i32 [ %7, %6 ], [ 0, %2 ]
  %4 = shl nuw i32 1, %.08
  %5 = and i32 %4, %0
  %.not = icmp eq i32 %5, 0
  br i1 %.not, label %6, label %._crit_edge

6:                                                ; preds = %.lr.ph
  %7 = add nuw nsw i32 %.08, 1
  %exitcond.not = icmp eq i32 %7, %1
  br i1 %exitcond.not, label %._crit_edge, label %.lr.ph, !llvm.loop !26

._crit_edge:                                      ; preds = %.lr.ph, %6, %2
  %.07 = phi i32 [ -1, %2 ], [ -1, %6 ], [ %.08, %.lr.ph ]
  ret i32 %.07
}